target datalayout = "e-m:e-p270:32:32-p271:32:32-p272:64:64-i64:64-i128:128-f80:128-n8:16:32:64-S128"
target triple = "x86_64-pc-linux-gnu"

%struct.tng_atom = type { ptr, i64, ptr, ptr }
%struct.tng_trajectory = type { ptr, ptr, i64, ptr, ptr, ptr, ptr, ptr, ptr, i8, i8, ptr, ptr, ptr, ptr, ptr, ptr, ptr, ptr, ptr, i64, i64, i8, i64, i64, i64, double, i64, ptr, ptr, i64, i64, i64, i64, i64, %struct.tng_trajectory_frame_set, i64, i64, i64, i32, ptr, i32, ptr, ptr, ptr, double }
%struct.tng_trajectory_frame_set = type { i64, ptr, i64, i64, i64, i64, ptr, i64, i64, i64, i64, i64, i64, i64, double, i32, ptr, i32, ptr }
%struct.tng_molecule = type { i64, i64, i64, i64, i64, i64, ptr, ptr, ptr, ptr, ptr }
%struct.tng_residue = type { ptr, i64, ptr, i64, i64 }

; Function Attrs: nounwind uwtable
define i32 @tng_molecule_cnt_list_get(ptr noundef %0, ptr noundef %1) #0 {
  %3 = alloca i32, align 4
  %4 = alloca ptr, align 8
  %5 = alloca ptr, align 8
  store ptr %0, ptr %4, align 8, !tbaa !3
  store ptr %1, ptr %5, align 8, !tbaa !108
  %6 = load ptr, ptr %4, align 8, !tbaa !3
  %7 = getelementptr inbounds nuw %struct.tng_trajectory, ptr %6, i32 0, i32 22
  %8 = load i8, ptr %7, align 8, !tbaa !64
  %9 = icmp ne i8 %8, 0
  br i1 %9, label %10, label %16

10:                                               ; preds = %2
  %11 = load ptr, ptr %4, align 8, !tbaa !3
  %12 = getelementptr inbounds nuw %struct.tng_trajectory, ptr %11, i32 0, i32 35
  %13 = getelementptr inbounds nuw %struct.tng_trajectory_frame_set, ptr %12, i32 0, i32 6
  %14 = load ptr, ptr %13, align 8, !tbaa !66
  %15 = load ptr, ptr %5, align 8, !tbaa !108
  store ptr %14, ptr %15, align 8, !tbaa !47
  br label %21

16:                                               ; preds = %2
  %17 = load ptr, ptr %4, align 8, !tbaa !3
  %18 = getelementptr inbounds nuw %struct.tng_trajectory, ptr %17, i32 0, i32 29
  %19 = load ptr, ptr %18, align 8, !tbaa !46
  %20 = load ptr, ptr %5, align 8, !tbaa !108
  store ptr %19, ptr %20, align 8, !tbaa !47
  br label %21

21:                                               ; preds = %16, %10
  %22 = load ptr, ptr %5, align 8, !tbaa !108
  %23 = load ptr, ptr %22, align 8, !tbaa !47
  %24 = icmp eq ptr %23, null
  br i1 %24, label %25, label %26

25:                                               ; preds = %21
  store i32 1, ptr %3, align 4
  br label %27

26:                                               ; preds = %21
  store i32 0, ptr %3, align 4
  br label %27

27:                                               ; preds = %26, %25
  %28 = load i32, ptr %3, align 4
  ret i32 %28
}

; Function Attrs: nounwind uwtable
define i32 @tng_residue_id_of_particle_nr_get(ptr noundef %0, i64 noundef %1, ptr noundef %2) #0 {
  %4 = alloca i32, align 4
  %5 = alloca ptr, align 8
  %6 = alloca i64, align 8
  %7 = alloca ptr, align 8
  %8 = alloca i64, align 8
  %9 = alloca i64, align 8
  %10 = alloca ptr, align 8
  %11 = alloca ptr, align 8
  %12 = alloca ptr, align 8
  %13 = alloca i32, align 4
  %14 = alloca i32, align 4
  store ptr %0, ptr %5, align 8, !tbaa !3
  store i64 %1, ptr %6, align 8, !tbaa !26
  store ptr %2, ptr %7, align 8, !tbaa !47
  call void @llvm.lifetime.start.p0(i64 8, ptr %8) #11
  store i64 0, ptr %8, align 8, !tbaa !26
  call void @llvm.lifetime.start.p0(i64 8, ptr %9) #11
  call void @llvm.lifetime.start.p0(i64 8, ptr %10) #11
  store ptr null, ptr %10, align 8, !tbaa !47
  call void @llvm.lifetime.start.p0(i64 8, ptr %11) #11
  call void @llvm.lifetime.start.p0(i64 8, ptr %12) #11
  call void @llvm.lifetime.start.p0(i64 4, ptr %13) #11
  store i32 0, ptr %13, align 4, !tbaa !20
  %15 = load ptr, ptr %5, align 8, !tbaa !3
  %16 = call i32 @tng_molecule_cnt_list_get(ptr noundef %15, ptr noundef %10)
  %17 = load ptr, ptr %10, align 8, !tbaa !47
  %18 = icmp ne ptr %17, null
  br i1 %18, label %20, label %19

19:                                               ; preds = %3
  store i32 1, ptr %4, align 4
  store i32 1, ptr %14, align 4
  br label %87

20:                                               ; preds = %3
  store i64 0, ptr %9, align 8, !tbaa !26
  br label %21

21:                                               ; preds = %67, %20
  %22 = load i64, ptr %9, align 8, !tbaa !26
  %23 = load ptr, ptr %5, align 8, !tbaa !3
  %24 = getelementptr inbounds nuw %struct.tng_trajectory, ptr %23, i32 0, i32 27
  %25 = load i64, ptr %24, align 8, !tbaa !32
  %26 = icmp slt i64 %22, %25
  br i1 %26, label %27, label %70

27:                                               ; preds = %21
  %28 = load ptr, ptr %5, align 8, !tbaa !3
  %29 = getelementptr inbounds nuw %struct.tng_trajectory, ptr %28, i32 0, i32 28
  %30 = load ptr, ptr %29, align 8, !tbaa !40
  %31 = load i64, ptr %9, align 8, !tbaa !26
  %32 = getelementptr inbounds %struct.tng_molecule, ptr %30, i64 %31
  store ptr %32, ptr %11, align 8, !tbaa !45
  %33 = load i64, ptr %8, align 8, !tbaa !26
  %34 = load ptr, ptr %11, align 8, !tbaa !45
  %35 = getelementptr inbounds nuw %struct.tng_molecule, ptr %34, i32 0, i32 4
  %36 = load i64, ptr %35, align 8, !tbaa !54
  %37 = load ptr, ptr %10, align 8, !tbaa !47
  %38 = load i64, ptr %9, align 8, !tbaa !26
  %39 = getelementptr inbounds i64, ptr %37, i64 %38
  %40 = load i64, ptr %39, align 8, !tbaa !26
  %41 = mul nsw i64 %36, %40
  %42 = add nsw i64 %33, %41
  %43 = sub nsw i64 %42, 1
  %44 = load i64, ptr %6, align 8, !tbaa !26
  %45 = icmp slt i64 %43, %44
  br i1 %45, label %46, label %57

46:                                               ; preds = %27
  %47 = load ptr, ptr %11, align 8, !tbaa !45
  %48 = getelementptr inbounds nuw %struct.tng_molecule, ptr %47, i32 0, i32 4
  %49 = load i64, ptr %48, align 8, !tbaa !54
  %50 = load ptr, ptr %10, align 8, !tbaa !47
  %51 = load i64, ptr %9, align 8, !tbaa !26
  %52 = getelementptr inbounds i64, ptr %50, i64 %51
  %53 = load i64, ptr %52, align 8, !tbaa !26
  %54 = mul nsw i64 %49, %53
  %55 = load i64, ptr %8, align 8, !tbaa !26
  %56 = add nsw i64 %55, %54
  store i64 %56, ptr %8, align 8, !tbaa !26
  br label %67

57:                                               ; preds = %27
  %58 = load ptr, ptr %11, align 8, !tbaa !45
  %59 = getelementptr inbounds nuw %struct.tng_molecule, ptr %58, i32 0, i32 9
  %60 = load ptr, ptr %59, align 8, !tbaa !55
  %61 = load i64, ptr %6, align 8, !tbaa !26
  %62 = load ptr, ptr %11, align 8, !tbaa !45
  %63 = getelementptr inbounds nuw %struct.tng_molecule, ptr %62, i32 0, i32 4
  %64 = load i64, ptr %63, align 8, !tbaa !54
  %65 = srem i64 %61, %64
  %66 = getelementptr inbounds %struct.tng_atom, ptr %60, i64 %65
  store ptr %66, ptr %12, align 8, !tbaa !8
  store i32 1, ptr %13, align 4, !tbaa !20
  br label %70

67:                                               ; preds = %46
  %68 = load i64, ptr %9, align 8, !tbaa !26
  %69 = add nsw i64 %68, 1
  store i64 %69, ptr %9, align 8, !tbaa !26
  br label %21, !llvm.loop !117

70:                                               ; preds = %57, %21
  %71 = load i32, ptr %13, align 4, !tbaa !20
  %72 = icmp ne i32 %71, 0
  br i1 %72, label %74, label %73

73:                                               ; preds = %70
  store i32 1, ptr %4, align 4
  store i32 1, ptr %14, align 4
  br label %87

74:                                               ; preds = %70
  %75 = load ptr, ptr %12, align 8, !tbaa !8
  %76 = getelementptr inbounds nuw %struct.tng_atom, ptr %75, i32 0, i32 0
  %77 = load ptr, ptr %76, align 8, !tbaa !13
  %78 = icmp ne ptr %77, null
  br i1 %78, label %80, label %79

79:                                               ; preds = %74
  store i32 1, ptr %4, align 4
  store i32 1, ptr %14, align 4
  br label %87

80:                                               ; preds = %74
  %81 = load ptr, ptr %12, align 8, !tbaa !8
  %82 = getelementptr inbounds nuw %struct.tng_atom, ptr %81, i32 0, i32 0
  %83 = load ptr, ptr %82, align 8, !tbaa !13
  %84 = getelementptr inbounds nuw %struct.tng_residue, ptr %83, i32 0, i32 1
  %85 = load i64, ptr %84, align 8, !tbaa !77
  %86 = load ptr, ptr %7, align 8, !tbaa !47
  store i64 %85, ptr %86, align 8, !tbaa !26
  store i32 0, ptr %4, align 4
  store i32 1, ptr %14, align 4
  br label %87

87:                                               ; preds = %80, %79, %73, %19
  call void @llvm.lifetime.end.p0(i64 4, ptr %13) #11
  call void @llvm.lifetime.end.p0(i64 8, ptr %12) #11
  call void @llvm.lifetime.end.p0(i64 8, ptr %11) #11
  call void @llvm.lifetime.end.p0(i64 8, ptr %10) #11
  call void @llvm.lifetime.end.p0(i64 8, ptr %9) #11
  call void @llvm.lifetime.end.p0(i64 8, ptr %8) #11
  %88 = load i32, ptr %4, align 4
  ret i32 %88
}